target datalayout = "e-m:e-p270:32:32-p271:32:32-p272:64:64-i64:64-i128:128-f80:128-n8:16:32:64-S128"
target triple = "x86_64-pc-linux-gnu"

%struct.progress = type { ptr, ptr, i64, i64, i32, i32, i32, ptr, i64, %struct.strbuf, i32, i32 }
%struct.strbuf = type { i64, i64, ptr }
%struct.itimerval = type { %struct.timeval, %struct.timeval }
%struct.timeval = type { i64, i64 }
%struct.sigaction = type { %union.anon, %struct.__sigset_t, i32, ptr }
%union.anon = type { ptr }
%struct.__sigset_t = type { [16 x i64] }

@progress_update = internal global i32 0, align 4
@.str = private unnamed_addr constant [11 x i8] c"progress.c\00", align 1
@progress_testing = dso_local global i32 0, align 4
@.str.13 = private unnamed_addr constant [9 x i8] c"progress\00", align 1

; Function Attrs: nounwind uwtable
define internal void @set_progress_signal() #0 {
  %1 = alloca %struct.sigaction, align 8
  %2 = alloca %struct.itimerval, align 8
  %3 = alloca i32, align 4
  call void @llvm.lifetime.start.p0(i64 152, ptr %1) #9
  call void @llvm.lifetime.start.p0(i64 32, ptr %2) #9
  %4 = load i32, ptr @progress_testing, align 4, !tbaa !4
  %5 = icmp ne i32 %4, 0
  br i1 %5, label %6, label %7

6:                                                ; preds = %0
  store i32 1, ptr %3, align 4
  br label %20

7:                                                ; preds = %0
  store volatile i32 0, ptr @progress_update, align 4, !tbaa !4
  call void @llvm.memset.p0.i64(ptr align 8 %1, i8 0, i64 152, i1 false)
  %8 = getelementptr inbounds nuw %struct.sigaction, ptr %1, i32 0, i32 0
  store ptr @progress_interval, ptr %8, align 8, !tbaa !49
  %9 = getelementptr inbounds nuw %struct.sigaction, ptr %1, i32 0, i32 1
  %10 = call i32 @sigemptyset(ptr noundef %9) #9
  %11 = getelementptr inbounds nuw %struct.sigaction, ptr %1, i32 0, i32 2
  store i32 268435456, ptr %11, align 8, !tbaa !50
  %12 = call i32 @sigaction(i32 noundef 14, ptr noundef %1, ptr noundef null) #9
  %13 = getelementptr inbounds nuw %struct.itimerval, ptr %2, i32 0, i32 0
  %14 = getelementptr inbounds nuw %struct.timeval, ptr %13, i32 0, i32 0
  store i64 1, ptr %14, align 8, !tbaa !53
  %15 = getelementptr inbounds nuw %struct.itimerval, ptr %2, i32 0, i32 0
  %16 = getelementptr inbounds nuw %struct.timeval, ptr %15, i32 0, i32 1
  store i64 0, ptr %16, align 8, !tbaa !56
  %17 = getelementptr inbounds nuw %struct.itimerval, ptr %2, i32 0, i32 1
  %18 = getelementptr inbounds nuw %struct.itimerval, ptr %2, i32 0, i32 0
  call void @llvm.memcpy.p0.p0.i64(ptr align 8 %17, ptr align 8 %18, i64 16, i1 false), !tbaa.struct !57
  %19 = call i32 @setitimer(i32 noundef 0, ptr noundef %2, ptr noundef null) #9
  store i32 0, ptr %3, align 4
  br label %20

20:                                               ; preds = %7, %6
  call void @llvm.lifetime.end.p0(i64 32, ptr %2) #9
  call void @llvm.lifetime.end.p0(i64 152, ptr %1) #9
  %21 = load i32, ptr %3, align 4
  switch i32 %21, label %23 [
    i32 0, label %22
    i32 1, label %22
  ]

22:                                               ; preds = %20, %20
  ret void

23:                                               ; preds = %20
  unreachable
}

; Function Attrs: nounwind uwtable
define internal ptr @start_progress_delay(ptr noundef %0, ptr noundef %1, i64 noundef %2, i32 noundef %3, i32 noundef %4) #0 {
  %6 = alloca ptr, align 8
  %7 = alloca ptr, align 8
  %8 = alloca i64, align 8
  %9 = alloca i32, align 4
  %10 = alloca i32, align 4
  %11 = alloca ptr, align 8
  store ptr %0, ptr %6, align 8, !tbaa !43
  store ptr %1, ptr %7, align 8, !tbaa !31
  store i64 %2, ptr %8, align 8, !tbaa !11
  store i32 %3, ptr %9, align 4, !tbaa !4
  store i32 %4, ptr %10, align 4, !tbaa !4
  call void @llvm.lifetime.start.p0(i64 8, ptr %11) #9
  %12 = call ptr @xmalloc(i64 noundef 96)
  store ptr %12, ptr %11, align 8, !tbaa !8
  %13 = load ptr, ptr %6, align 8, !tbaa !43
  %14 = load ptr, ptr %11, align 8, !tbaa !8
  %15 = getelementptr inbounds nuw %struct.progress, ptr %14, i32 0, i32 0
  store ptr %13, ptr %15, align 8, !tbaa !44
  %16 = load ptr, ptr %7, align 8, !tbaa !31
  %17 = load ptr, ptr %11, align 8, !tbaa !8
  %18 = getelementptr inbounds nuw %struct.progress, ptr %17, i32 0, i32 1
  store ptr %16, ptr %18, align 8, !tbaa !42
  %19 = load i64, ptr %8, align 8, !tbaa !11
  %20 = load ptr, ptr %11, align 8, !tbaa !8
  %21 = getelementptr inbounds nuw %struct.progress, ptr %20, i32 0, i32 3
  store i64 %19, ptr %21, align 8, !tbaa !35
  %22 = load ptr, ptr %11, align 8, !tbaa !8
  %23 = getelementptr inbounds nuw %struct.progress, ptr %22, i32 0, i32 2
  store i64 -1, ptr %23, align 8, !tbaa !27
  %24 = load ptr, ptr %11, align 8, !tbaa !8
  %25 = getelementptr inbounds nuw %struct.progress, ptr %24, i32 0, i32 4
  store i32 -1, ptr %25, align 8, !tbaa !36
  %26 = load i32, ptr %9, align 4, !tbaa !4
  %27 = load ptr, ptr %11, align 8, !tbaa !8
  %28 = getelementptr inbounds nuw %struct.progress, ptr %27, i32 0, i32 5
  store i32 %26, ptr %28, align 4, !tbaa !33
  %29 = load i32, ptr %10, align 4, !tbaa !4
  %30 = load ptr, ptr %11, align 8, !tbaa !8
  %31 = getelementptr inbounds nuw %struct.progress, ptr %30, i32 0, i32 6
  store i32 %29, ptr %31, align 8, !tbaa !45
  %32 = load ptr, ptr %11, align 8, !tbaa !8
  %33 = getelementptr inbounds nuw %struct.progress, ptr %32, i32 0, i32 7
  store ptr null, ptr %33, align 8, !tbaa !13
  %34 = call i64 @getnanotime()
  %35 = load ptr, ptr %11, align 8, !tbaa !8
  %36 = getelementptr inbounds nuw %struct.progress, ptr %35, i32 0, i32 8
  store i64 %34, ptr %36, align 8, !tbaa !28
  %37 = load ptr, ptr %11, align 8, !tbaa !8
  %38 = getelementptr inbounds nuw %struct.progress, ptr %37, i32 0, i32 9
  call void @strbuf_init(ptr noundef %38, i64 noundef 0)
  %39 = load ptr, ptr %7, align 8, !tbaa !31
  %40 = call i32 @utf8_strwidth(ptr noundef %39)
  %41 = load ptr, ptr %11, align 8, !tbaa !8
  %42 = getelementptr inbounds nuw %struct.progress, ptr %41, i32 0, i32 10
  store i32 %40, ptr %42, align 8, !tbaa !39
  %43 = load ptr, ptr %11, align 8, !tbaa !8
  %44 = getelementptr inbounds nuw %struct.progress, ptr %43, i32 0, i32 11
  store i32 0, ptr %44, align 4, !tbaa !40
  call void @set_progress_signal()
  %45 = load ptr, ptr %7, align 8, !tbaa !31
  %46 = load ptr, ptr %6, align 8, !tbaa !43
  call void (ptr, i32, ptr, ptr, ptr, ...) @trace2_region_enter_fl(ptr noundef @.str, i32 noundef 275, ptr noundef @.str.13, ptr noundef %45, ptr noundef %46)
  %47 = load ptr, ptr %11, align 8, !tbaa !8
  call void @llvm.lifetime.end.p0(i64 8, ptr %11) #9
  ret ptr %47
}