; Function Attrs: nounwind uwtable
define internal fastcc noundef ptr @start_progress_delay(ptr noundef %0, ptr noundef %1, i64 noundef %2, i32 noundef %3, i32 noundef range(i32 0, 2) %4) unnamed_addr #1 {
  %6 = alloca %struct.sigaction, align 8
  %7 = alloca %struct.itimerval, align 8
  %8 = tail call ptr @xmalloc(i64 noundef 96) #12
  store ptr %0, ptr %8, align 8, !tbaa !38
  %9 = getelementptr inbounds nuw i8, ptr %8, i64 8
  store ptr %1, ptr %9, align 8, !tbaa !37
  %10 = getelementptr inbounds nuw i8, ptr %8, i64 24
  store i64 %2, ptr %10, align 8, !tbaa !31
  %11 = getelementptr inbounds nuw i8, ptr %8, i64 16
  store i64 -1, ptr %11, align 8, !tbaa !28
  %12 = getelementptr inbounds nuw i8, ptr %8, i64 32
  store i32 -1, ptr %12, align 8, !tbaa !32
  %13 = getelementptr inbounds nuw i8, ptr %8, i64 36
  store i32 %3, ptr %13, align 4, !tbaa !29
  %14 = getelementptr inbounds nuw i8, ptr %8, i64 40
  store i32 %4, ptr %14, align 8, !tbaa !39
  %15 = getelementptr inbounds nuw i8, ptr %8, i64 48
  store ptr null, ptr %15, align 8, !tbaa !8
  %16 = tail call i64 @getnanotime() #12
  %17 = getelementptr inbounds nuw i8, ptr %8, i64 56
  store i64 %16, ptr %17, align 8, !tbaa !16
  %18 = getelementptr inbounds nuw i8, ptr %8, i64 64
  tail call void @strbuf_init(ptr noundef nonnull %18, i64 noundef 0) #12
  %19 = tail call i32 @utf8_strwidth(ptr noundef %1) #12
  %20 = getelementptr inbounds nuw i8, ptr %8, i64 88
  store i32 %19, ptr %20, align 8, !tbaa !35
  %21 = getelementptr inbounds nuw i8, ptr %8, i64 92
  store i32 0, ptr %21, align 4, !tbaa !36
  call void @llvm.lifetime.start.p0(i64 152, ptr nonnull %6) #12
  call void @llvm.lifetime.start.p0(i64 32, ptr nonnull %7) #12
  %22 = load i32, ptr @progress_testing, align 4, !tbaa !4
  %.not.i = icmp eq i32 %22, 0
  br i1 %.not.i, label %23, label %set_progress_signal.exit

23:                                               ; preds = %5
  store volatile i32 0, ptr @progress_update, align 4, !tbaa !4
  %24 = getelementptr inbounds nuw i8, ptr %6, i64 8
  call void @llvm.memset.p0.i64(ptr noundef nonnull align 8 dereferenceable(152) %24, i8 0, i64 144, i1 false)
  store ptr @progress_interval, ptr %6, align 8, !tbaa !27
  %25 = call i32 @sigemptyset(ptr noundef nonnull %24) #12
  %26 = getelementptr inbounds nuw i8, ptr %6, i64 136
  store i32 268435456, ptr %26, align 8, !tbaa !40
  %27 = call i32 @sigaction(i32 noundef 14, ptr noundef nonnull %6, ptr noundef null) #12
  store i64 1, ptr %7, align 8, !tbaa !43
  %28 = getelementptr inbounds nuw i8, ptr %7, i64 8
  store i64 0, ptr %28, align 8, !tbaa !46
  %29 = getelementptr inbounds nuw i8, ptr %7, i64 16
  call void @llvm.memcpy.p0.p0.i64(ptr noundef nonnull align 8 dereferenceable(16) %29, ptr noundef nonnull align 8 dereferenceable(16) %7, i64 16, i1 false), !tbaa.struct !47
  %30 = call i32 @setitimer(i32 noundef 0, ptr noundef nonnull %7, ptr noundef null) #12
  br label %set_progress_signal.exit

set_progress_signal.exit:                         ; preds = %5, %23
  call void @llvm.lifetime.end.p0(i64 32, ptr nonnull %7) #12
  call void @llvm.lifetime.end.p0(i64 152, ptr nonnull %6) #12
  call void (ptr, i32, ptr, ptr, ptr, ...) @trace2_region_enter_fl(ptr noundef nonnull @.str, i32 noundef 275, ptr noundef nonnull @.str.13, ptr noundef %1, ptr noundef %0) #12
  ret ptr %8
}